target datalayout = "e-m:e-p270:32:32-p271:32:32-p272:64:64-i64:64-i128:128-f80:128-n8:16:32:64-S128"
target triple = "x86_64-unknown-linux-gnu"

%struct.HIDState = type { %union.anon, i32, i32, i32, i32, i8, i8, ptr, ptr, ptr }
%union.anon = type { %struct.HIDMouseState }
%struct.HIDMouseState = type { [16 x %struct.HIDPointerEvent], i32 }
%struct.HIDPointerEvent = type { i32, i32, i32, i32 }

; Function Attrs: nounwind sspstrong uwtable
define dso_local void @hid_pointer_activate(ptr noundef %hs) #0 {
entry:
  %hs.addr = alloca ptr, align 8
  store ptr %hs, ptr %hs.addr, align 8
  %0 = load ptr, ptr %hs.addr, align 8
  %1 = getelementptr inbounds %struct.HIDState, ptr %0, i32 0, i32 0
  %mouse_grabbed = getelementptr inbounds %struct.HIDMouseState, ptr %1, i32 0, i32 1
  %2 = load i32, ptr %mouse_grabbed, align 8
  %tobool = icmp ne i32 %2, 0
  br i1 %tobool, label %if.end, label %if.then

if.then:                                          ; preds = %entry
  %3 = load ptr, ptr %hs.addr, align 8
  %s = getelementptr inbounds %struct.HIDState, ptr %3, i32 0, i32 9
  %4 = load ptr, ptr %s, align 8
  call void @qemu_input_handler_activate(ptr noundef %4)
  %5 = load ptr, ptr %hs.addr, align 8
  %6 = getelementptr inbounds %struct.HIDState, ptr %5, i32 0, i32 0
  %mouse_grabbed1 = getelementptr inbounds %struct.HIDMouseState, ptr %6, i32 0, i32 1
  store i32 1, ptr %mouse_grabbed1, align 8
  br label %if.end

if.end:                                           ; preds = %if.then, %entry
  ret void
}