; Function Attrs: nounwind sspstrong uwtable
define dso_local void @hid_pointer_activate(ptr noundef captures(none) %hs) local_unnamed_addr #1 {
entry:
  %mouse_grabbed = getelementptr inbounds nuw i8, ptr %hs, i64 256
  %0 = load i32, ptr %mouse_grabbed, align 8
  %tobool.not = icmp eq i32 %0, 0
  br i1 %tobool.not, label %if.then, label %if.end

if.then:                                          ; preds = %entry
  %s = getelementptr inbounds nuw i8, ptr %hs, i64 296
  %1 = load ptr, ptr %s, align 8
  tail call void @qemu_input_handler_activate(ptr noundef %1) #11
  store i32 1, ptr %mouse_grabbed, align 8
  br label %if.end

if.end:                                           ; preds = %if.then, %entry
  ret void
}